target datalayout = "e-m:e-p270:32:32-p271:32:32-p272:64:64-i64:64-i128:128-f80:128-n8:16:32:64-S128"
target triple = "x86_64-pc-linux-gnu"

; Function Attrs: inlinehint nounwind sspstrong willreturn memory(none) uwtable
define internal zeroext i1 @RB_TEST(i64 noundef %0) #9 {
  %2 = alloca i64, align 8
  store i64 %0, ptr %2, align 8, !tbaa !12
  %3 = load i64, ptr %2, align 8, !tbaa !12
  %4 = and i64 %3, -5
  %5 = icmp ne i64 %4, 0
  ret i1 %5
}

; Function Attrs: inlinehint nounwind sspstrong uwtable
define internal i32 @rb_check_arity(i32 noundef %0, i32 noundef %1, i32 noundef %2) #1 {
  %4 = alloca i32, align 4
  %5 = alloca i32, align 4
  %6 = alloca i32, align 4
  store i32 %0, ptr %4, align 4, !tbaa !39
  store i32 %1, ptr %5, align 4, !tbaa !39
  store i32 %2, ptr %6, align 4, !tbaa !39
  %7 = load i32, ptr %4, align 4, !tbaa !39
  %8 = load i32, ptr %5, align 4, !tbaa !39
  %9 = icmp slt i32 %7, %8
  br i1 %9, label %17, label %10

10:                                               ; preds = %3
  %11 = load i32, ptr %6, align 4, !tbaa !39
  %12 = icmp ne i32 %11, -1
  br i1 %12, label %13, label %21

13:                                               ; preds = %10
  %14 = load i32, ptr %4, align 4, !tbaa !39
  %15 = load i32, ptr %6, align 4, !tbaa !39
  %16 = icmp sgt i32 %14, %15
  br i1 %16, label %17, label %21

17:                                               ; preds = %13, %3
  %18 = load i32, ptr %4, align 4, !tbaa !39
  %19 = load i32, ptr %5, align 4, !tbaa !39
  %20 = load i32, ptr %6, align 4, !tbaa !39
  call void @rb_error_arity(i32 noundef %18, i32 noundef %19, i32 noundef %20) #31
  unreachable

21:                                               ; preds = %13, %10
  %22 = load i32, ptr %4, align 4, !tbaa !39
  ret i32 %22
}

; Function Attrs: nounwind sspstrong uwtable
define internal i64 @rb_mod_autoload_p(i32 noundef %0, ptr noundef %1, i64 noundef %2) #0 {
  %4 = alloca i64, align 8
  %5 = alloca i32, align 4
  %6 = alloca ptr, align 8
  %7 = alloca i64, align 8
  %8 = alloca i32, align 4
  %9 = alloca i64, align 8
  %10 = alloca i64, align 8
  %11 = alloca i32, align 4
  store i32 %0, ptr %5, align 4, !tbaa !39
  store ptr %1, ptr %6, align 8, !tbaa !48
  store i64 %2, ptr %7, align 8, !tbaa !12
  call void @llvm.lifetime.start.p0(i64 4, ptr %8) #8
  %12 = load i32, ptr %5, align 4, !tbaa !39
  %13 = call i32 @rb_check_arity(i32 noundef %12, i32 noundef 1, i32 noundef 2)
  %14 = icmp eq i32 %13, 1
  br i1 %14, label %15, label %16

15:                                               ; preds = %3
  br label %22

16:                                               ; preds = %3
  %17 = load ptr, ptr %6, align 8, !tbaa !48
  %18 = getelementptr i64, ptr %17, i64 1
  %19 = load i64, ptr %18, align 8, !tbaa !12
  %20 = call zeroext i1 @RB_TEST(i64 noundef %19) #30
  %21 = zext i1 %20 to i32
  br label %22

22:                                               ; preds = %16, %15
  %23 = phi i32 [ 1, %15 ], [ %21, %16 ]
  store i32 %23, ptr %8, align 4, !tbaa !39
  call void @llvm.lifetime.start.p0(i64 8, ptr %9) #8
  %24 = load ptr, ptr %6, align 8, !tbaa !48
  %25 = getelementptr i64, ptr %24, i64 0
  %26 = load i64, ptr %25, align 8, !tbaa !12
  store i64 %26, ptr %9, align 8, !tbaa !12
  call void @llvm.lifetime.start.p0(i64 8, ptr %10) #8
  %27 = call i64 @rb_check_id(ptr noundef %9)
  store i64 %27, ptr %10, align 8, !tbaa !12
  %28 = load i64, ptr %10, align 8, !tbaa !12
  %29 = icmp ne i64 %28, 0
  br i1 %29, label %31, label %30

30:                                               ; preds = %22
  store i64 4, ptr %4, align 8
  store i32 1, ptr %11, align 4
  br label %36

31:                                               ; preds = %22
  %32 = load i64, ptr %7, align 8, !tbaa !12
  %33 = load i64, ptr %10, align 8, !tbaa !12
  %34 = load i32, ptr %8, align 4, !tbaa !39
  %35 = call i64 @rb_autoload_at_p(i64 noundef %32, i64 noundef %33, i32 noundef %34)
  store i64 %35, ptr %4, align 8
  store i32 1, ptr %11, align 4
  br label %36

36:                                               ; preds = %31, %30
  call void @llvm.lifetime.end.p0(i64 8, ptr %10) #8
  call void @llvm.lifetime.end.p0(i64 8, ptr %9) #8
  call void @llvm.lifetime.end.p0(i64 4, ptr %8) #8
  %37 = load i64, ptr %4, align 8
  ret i64 %37
}

; Function Attrs: inlinehint nounwind sspstrong willreturn memory(none) uwtable
define internal zeroext i1 @RB_NIL_P(i64 noundef %0) #9 {
  %2 = alloca i64, align 8
  store i64 %0, ptr %2, align 8, !tbaa !12
  %3 = load i64, ptr %2, align 8, !tbaa !12
  %4 = icmp eq i64 %3, 4
  ret i1 %4
}

; Function Attrs: nounwind sspstrong uwtable
define internal i64 @rb_f_autoload_p(i32 noundef %0, ptr noundef %1, i64 noundef %2) #0 {
  %4 = alloca i64, align 8
  %5 = alloca i32, align 4
  %6 = alloca ptr, align 8
  %7 = alloca i64, align 8
  %8 = alloca i64, align 8
  %9 = alloca i32, align 4
  store i32 %0, ptr %5, align 4, !tbaa !39
  store ptr %1, ptr %6, align 8, !tbaa !48
  store i64 %2, ptr %7, align 8, !tbaa !12
  call void @llvm.lifetime.start.p0(i64 8, ptr %8) #8
  %10 = call i64 @rb_vm_cbase()
  store i64 %10, ptr %8, align 8, !tbaa !12
  %11 = load i64, ptr %8, align 8, !tbaa !12
  %12 = call zeroext i1 @RB_NIL_P(i64 noundef %11) #30
  br i1 %12, label %13, label %14

13:                                               ; preds = %3
  store i64 4, ptr %4, align 8
  store i32 1, ptr %9, align 4
  br label %19

14:                                               ; preds = %3
  %15 = load i32, ptr %5, align 4, !tbaa !39
  %16 = load ptr, ptr %6, align 8, !tbaa !48
  %17 = load i64, ptr %8, align 8, !tbaa !12
  %18 = call i64 @rb_mod_autoload_p(i32 noundef %15, ptr noundef %16, i64 noundef %17)
  store i64 %18, ptr %4, align 8
  store i32 1, ptr %9, align 4
  br label %19

19:                                               ; preds = %14, %13
  call void @llvm.lifetime.end.p0(i64 8, ptr %8) #8
  %20 = load i64, ptr %4, align 8
  ret i64 %20
}