; Function Attrs: nounwind sspstrong uwtable
define internal i64 @rb_f_autoload_p(i32 noundef %0, ptr noundef readonly captures(none) %1, i64 %2) #0 {
  %4 = alloca i64, align 8
  %5 = tail call i64 @rb_vm_cbase() #7
  %6 = icmp eq i64 %5, 4
  br i1 %6, label %23, label %7

7:                                                ; preds = %3
  %8 = add i32 %0, -3
  %or.cond.i.i = icmp ult i32 %8, -2
  br i1 %or.cond.i.i, label %9, label %rb_check_arity.exit.i

9:                                                ; preds = %7
  tail call void @rb_error_arity(i32 noundef %0, i32 noundef 1, i32 noundef 2) #21
  unreachable

rb_check_arity.exit.i:                            ; preds = %7
  %10 = icmp eq i32 %0, 1
  br i1 %10, label %17, label %11

11:                                               ; preds = %rb_check_arity.exit.i
  %12 = getelementptr i8, ptr %1, i64 8
  %13 = load i64, ptr %12, align 8, !tbaa !42
  %14 = and i64 %13, -5
  %15 = icmp ne i64 %14, 0
  %16 = zext i1 %15 to i32
  br label %17

17:                                               ; preds = %11, %rb_check_arity.exit.i
  %18 = phi i32 [ %16, %11 ], [ 1, %rb_check_arity.exit.i ]
  call void @llvm.lifetime.start.p0(i64 8, ptr nonnull %4) #7
  %19 = load i64, ptr %1, align 8, !tbaa !42
  store i64 %19, ptr %4, align 8, !tbaa !42
  %20 = call i64 @rb_check_id(ptr noundef nonnull %4) #7
  %.not.i = icmp eq i64 %20, 0
  br i1 %.not.i, label %rb_mod_autoload_p.exit, label %21

21:                                               ; preds = %17
  %22 = call i64 @rb_autoload_at_p(i64 noundef %5, i64 noundef %20, i32 noundef %18) #7
  br label %rb_mod_autoload_p.exit

rb_mod_autoload_p.exit:                           ; preds = %17, %21
  %.0.i = phi i64 [ %22, %21 ], [ 4, %17 ]
  call void @llvm.lifetime.end.p0(i64 8, ptr nonnull %4) #7
  br label %23

23:                                               ; preds = %3, %rb_mod_autoload_p.exit
  %.0 = phi i64 [ %.0.i, %rb_mod_autoload_p.exit ], [ 4, %3 ]
  ret i64 %.0
}